target datalayout = "e-m:e-p270:32:32-p271:32:32-p272:64:64-i64:64-i128:128-f80:128-n8:16:32:64-S128"
target triple = "x86_64-unknown-linux-gnu"

%"struct.nla::const_iterator_mon" = type { %class.svector.0, ptr, i8, i32 }
%class.svector.0 = type { %class.vector.1 }
%class.vector.1 = type { ptr }

; Function Attrs: mustprogress nounwind uwtable
define linkonce_odr hidden noundef nonnull align 1 dereferenceable(1) ptr @_ZNK6vectorIbLb0EjEixEj(ptr noundef nonnull align 8 dereferenceable(8) %this, i32 noundef %idx) #4 comdat align 2 {
entry:
  %this.addr = alloca ptr, align 8
  %idx.addr = alloca i32, align 4
  store ptr %this, ptr %this.addr, align 8
  store i32 %idx, ptr %idx.addr, align 4
  %this1 = load ptr, ptr %this.addr, align 8
  %m_data = getelementptr inbounds %class.vector.1, ptr %this1, i32 0, i32 0
  %0 = load ptr, ptr %m_data, align 8
  %1 = load i32, ptr %idx.addr, align 4
  %idxprom = zext i32 %1 to i64
  %arrayidx = getelementptr inbounds i8, ptr %0, i64 %idxprom
  ret ptr %arrayidx
}

; Function Attrs: mustprogress nounwind uwtable
define linkonce_odr hidden noundef i32 @_ZNK6vectorIbLb0EjE4sizeEv(ptr noundef nonnull align 8 dereferenceable(8) %this) #4 comdat align 2 {
entry:
  %retval = alloca i32, align 4
  %this.addr = alloca ptr, align 8
  store ptr %this, ptr %this.addr, align 8
  %this1 = load ptr, ptr %this.addr, align 8
  %m_data = getelementptr inbounds %class.vector.1, ptr %this1, i32 0, i32 0
  %0 = load ptr, ptr %m_data, align 8
  %cmp = icmp eq ptr %0, null
  br i1 %cmp, label %if.then, label %if.end

if.then:                                          ; preds = %entry
  store i32 0, ptr %retval, align 4
  br label %return

if.end:                                           ; preds = %entry
  %m_data2 = getelementptr inbounds %class.vector.1, ptr %this1, i32 0, i32 0
  %1 = load ptr, ptr %m_data2, align 8
  %arrayidx = getelementptr inbounds i32, ptr %1, i64 -1
  %2 = load i32, ptr %arrayidx, align 4
  store i32 %2, ptr %retval, align 4
  br label %return

return:                                           ; preds = %if.end, %if.then
  %3 = load i32, ptr %retval, align 4
  ret i32 %3
}

; Function Attrs: mustprogress uwtable
define linkonce_odr hidden noundef zeroext i1 @_ZNK6vectorIbLb0EjEeqERKS0_(ptr noundef nonnull align 8 dereferenceable(8) %this, ptr noundef nonnull align 8 dereferenceable(8) %other) #5 comdat align 2 {
entry:
  %retval = alloca i1, align 1
  %this.addr = alloca ptr, align 8
  %other.addr = alloca ptr, align 8
  %i = alloca i32, align 4
  store ptr %this, ptr %this.addr, align 8
  store ptr %other, ptr %other.addr, align 8
  %this1 = load ptr, ptr %this.addr, align 8
  %0 = load ptr, ptr %other.addr, align 8
  %cmp = icmp eq ptr %this1, %0
  br i1 %cmp, label %if.then, label %if.end

if.then:                                          ; preds = %entry
  store i1 true, ptr %retval, align 1
  br label %return

if.end:                                           ; preds = %entry
  %call = call noundef i32 @_ZNK6vectorIbLb0EjE4sizeEv(ptr noundef nonnull align 8 dereferenceable(8) %this1)
  %1 = load ptr, ptr %other.addr, align 8
  %call2 = call noundef i32 @_ZNK6vectorIbLb0EjE4sizeEv(ptr noundef nonnull align 8 dereferenceable(8) %1)
  %cmp3 = icmp ne i32 %call, %call2
  br i1 %cmp3, label %if.then4, label %if.end5

if.then4:                                         ; preds = %if.end
  store i1 false, ptr %retval, align 1
  br label %return

if.end5:                                          ; preds = %if.end
  store i32 0, ptr %i, align 4
  br label %for.cond

for.cond:                                         ; preds = %for.inc, %if.end5
  %2 = load i32, ptr %i, align 4
  %call6 = call noundef i32 @_ZNK6vectorIbLb0EjE4sizeEv(ptr noundef nonnull align 8 dereferenceable(8) %this1)
  %cmp7 = icmp ult i32 %2, %call6
  br i1 %cmp7, label %for.body, label %for.end

for.body:                                         ; preds = %for.cond
  %3 = load i32, ptr %i, align 4
  %call8 = call noundef nonnull align 1 dereferenceable(1) ptr @_ZNK6vectorIbLb0EjEixEj(ptr noundef nonnull align 8 dereferenceable(8) %this1, i32 noundef %3)
  %4 = load i8, ptr %call8, align 1
  %tobool = trunc i8 %4 to i1
  %conv = zext i1 %tobool to i32
  %5 = load ptr, ptr %other.addr, align 8
  %6 = load i32, ptr %i, align 4
  %call9 = call noundef nonnull align 1 dereferenceable(1) ptr @_ZNK6vectorIbLb0EjEixEj(ptr noundef nonnull align 8 dereferenceable(8) %5, i32 noundef %6)
  %7 = load i8, ptr %call9, align 1
  %tobool10 = trunc i8 %7 to i1
  %conv11 = zext i1 %tobool10 to i32
  %cmp12 = icmp ne i32 %conv, %conv11
  br i1 %cmp12, label %if.then13, label %if.end14

if.then13:                                        ; preds = %for.body
  store i1 false, ptr %retval, align 1
  br label %return

if.end14:                                         ; preds = %for.body
  br label %for.inc

for.inc:                                          ; preds = %if.end14
  %8 = load i32, ptr %i, align 4
  %inc = add i32 %8, 1
  store i32 %inc, ptr %i, align 4
  br label %for.cond, !llvm.loop !6

for.end:                                          ; preds = %for.cond
  store i1 true, ptr %retval, align 1
  br label %return

return:                                           ; preds = %for.end, %if.then13, %if.then4, %if.then
  %9 = load i1, ptr %retval, align 1
  ret i1 %9
}

; Function Attrs: mustprogress uwtable
define hidden noundef zeroext i1 @_ZNK3nla18const_iterator_moneqERKS0_(ptr noundef nonnull align 8 dereferenceable(24) %this, ptr noundef nonnull align 8 dereferenceable(24) %other) #5 align 2 {
entry:
  %this.addr = alloca ptr, align 8
  %other.addr = alloca ptr, align 8
  store ptr %this, ptr %this.addr, align 8
  store ptr %other, ptr %other.addr, align 8
  %this1 = load ptr, ptr %this.addr, align 8
  %m_full_factorization_returned = getelementptr inbounds %"struct.nla::const_iterator_mon", ptr %this1, i32 0, i32 2
  %0 = load i8, ptr %m_full_factorization_returned, align 8
  %tobool = trunc i8 %0 to i1
  %conv = zext i1 %tobool to i32
  %1 = load ptr, ptr %other.addr, align 8
  %m_full_factorization_returned2 = getelementptr inbounds %"struct.nla::const_iterator_mon", ptr %1, i32 0, i32 2
  %2 = load i8, ptr %m_full_factorization_returned2, align 8
  %tobool3 = trunc i8 %2 to i1
  %conv4 = zext i1 %tobool3 to i32
  %cmp = icmp eq i32 %conv, %conv4
  br i1 %cmp, label %land.rhs, label %land.end

land.rhs:                                         ; preds = %entry
  %m_mask = getelementptr inbounds %"struct.nla::const_iterator_mon", ptr %this1, i32 0, i32 0
  %3 = load ptr, ptr %other.addr, align 8
  %m_mask5 = getelementptr inbounds %"struct.nla::const_iterator_mon", ptr %3, i32 0, i32 0
  %call = call noundef zeroext i1 @_ZNK6vectorIbLb0EjEeqERKS0_(ptr noundef nonnull align 8 dereferenceable(8) %m_mask, ptr noundef nonnull align 8 dereferenceable(8) %m_mask5)
  br label %land.end

land.end:                                         ; preds = %land.rhs, %entry
  %4 = phi i1 [ false, %entry ], [ %call, %land.rhs ]
  ret i1 %4
}