; Function Attrs: mustprogress nofree norecurse nosync nounwind willreturn memory(read, inaccessiblemem: none) uwtable
define hidden noundef zeroext i1 @_ZNK3nla18const_iterator_moneqERKS0_(ptr noundef nonnull readonly align 8 dereferenceable(24) %this, ptr noundef nonnull readonly align 8 dereferenceable(24) %other) local_unnamed_addr #7 align 2 {
entry:
  %m_full_factorization_returned = getelementptr inbounds i8, ptr %this, i64 16
  %0 = load i8, ptr %m_full_factorization_returned, align 8
  %m_full_factorization_returned2 = getelementptr inbounds i8, ptr %other, i64 16
  %1 = load i8, ptr %m_full_factorization_returned2, align 8
  %2 = xor i8 %1, %0
  %3 = and i8 %2, 1
  %cmp = icmp eq i8 %3, 0
  br i1 %cmp, label %land.rhs, label %land.end

land.rhs:                                         ; preds = %entry
  %cmp.i = icmp eq ptr %this, %other
  br i1 %cmp.i, label %land.end, label %if.end.i

if.end.i:                                         ; preds = %land.rhs
  %4 = load ptr, ptr %this, align 8
  %cmp.i.i = icmp eq ptr %4, null
  br i1 %cmp.i.i, label %_ZNK6vectorIbLb0EjE4sizeEv.exit.i, label %if.end.i.i

if.end.i.i:                                       ; preds = %if.end.i
  %arrayidx.i.i = getelementptr inbounds i8, ptr %4, i64 -4
  %5 = load i32, ptr %arrayidx.i.i, align 4
  br label %_ZNK6vectorIbLb0EjE4sizeEv.exit.i

_ZNK6vectorIbLb0EjE4sizeEv.exit.i:                ; preds = %if.end.i.i, %if.end.i
  %retval.0.i.i = phi i32 [ %5, %if.end.i.i ], [ 0, %if.end.i ]
  %6 = load ptr, ptr %other, align 8
  %cmp.i6.i = icmp eq ptr %6, null
  br i1 %cmp.i6.i, label %_ZNK6vectorIbLb0EjE4sizeEv.exit10.i, label %if.end.i7.i

if.end.i7.i:                                      ; preds = %_ZNK6vectorIbLb0EjE4sizeEv.exit.i
  %arrayidx.i8.i = getelementptr inbounds i8, ptr %6, i64 -4
  %7 = load i32, ptr %arrayidx.i8.i, align 4
  br label %_ZNK6vectorIbLb0EjE4sizeEv.exit10.i

_ZNK6vectorIbLb0EjE4sizeEv.exit10.i:              ; preds = %if.end.i7.i, %_ZNK6vectorIbLb0EjE4sizeEv.exit.i
  %retval.0.i9.i = phi i32 [ %7, %if.end.i7.i ], [ 0, %_ZNK6vectorIbLb0EjE4sizeEv.exit.i ]
  %cmp3.not.i = icmp ne i32 %retval.0.i.i, %retval.0.i9.i
  %brmerge.i = or i1 %cmp.i.i, %cmp3.not.i
  %not.cmp3.not.i = xor i1 %cmp3.not.i, true
  br i1 %brmerge.i, label %land.end, label %for.cond.preheader.split.i

for.cond.preheader.split.i:                       ; preds = %_ZNK6vectorIbLb0EjE4sizeEv.exit10.i
  %arrayidx.i13.i = getelementptr inbounds i8, ptr %4, i64 -4
  %8 = load i32, ptr %arrayidx.i13.i, align 4
  %wide.trip.count.i = zext i32 %8 to i64
  br label %for.cond.i

for.cond.i:                                       ; preds = %for.body.i, %for.cond.preheader.split.i
  %indvars.iv.i = phi i64 [ %indvars.iv.next.i, %for.body.i ], [ 0, %for.cond.preheader.split.i ]
  %exitcond.not.i = icmp eq i64 %indvars.iv.i, %wide.trip.count.i
  br i1 %exitcond.not.i, label %land.end, label %for.body.i

for.body.i:                                       ; preds = %for.cond.i
  %arrayidx.i16.i = getelementptr inbounds i8, ptr %4, i64 %indvars.iv.i
  %9 = load i8, ptr %arrayidx.i16.i, align 1
  %arrayidx.i18.i = getelementptr inbounds i8, ptr %6, i64 %indvars.iv.i
  %10 = load i8, ptr %arrayidx.i18.i, align 1
  %11 = xor i8 %10, %9
  %12 = and i8 %11, 1
  %cmp12.not.i = icmp eq i8 %12, 0
  %indvars.iv.next.i = add nuw nsw i64 %indvars.iv.i, 1
  br i1 %cmp12.not.i, label %for.cond.i, label %land.end, !llvm.loop !10

land.end:                                         ; preds = %for.body.i, %for.cond.i, %_ZNK6vectorIbLb0EjE4sizeEv.exit10.i, %land.rhs, %entry
  %13 = phi i1 [ false, %entry ], [ true, %land.rhs ], [ %not.cmp3.not.i, %_ZNK6vectorIbLb0EjE4sizeEv.exit10.i ], [ %exitcond.not.i, %for.cond.i ], [ %exitcond.not.i, %for.body.i ]
  ret i1 %13
}